; ModuleID = '45/228.c'
source_filename = "45/228.c"
target datalayout = "e-m:e-p270:32:32-p271:32:32-p272:64:64-i64:64-f80:128-n8:16:32:64-S128"
target triple = "x86_64-pc-linux-gnu"

@.str = private unnamed_addr constant [5 x i8] c"%s%s\00", align 1
@.str.1 = private unnamed_addr constant [4 x i8] c"%d\0A\00", align 1

; Function Attrs: noinline nounwind uwtable
define dso_local void @main() #0 {
  %1 = alloca [51 x i8], align 16
  %2 = alloca [51 x i8], align 16
  %3 = alloca i32, align 4
  %4 = alloca i32, align 4
  %5 = alloca i32, align 4
  %6 = alloca i32, align 4
  %7 = alloca i32, align 4
  %8 = alloca i32, align 4
  store i32 0, i32* %8, align 4
  %9 = getelementptr inbounds [51 x i8], [51 x i8]* %1, i64 0, i64 0
  %10 = getelementptr inbounds [51 x i8], [51 x i8]* %2, i64 0, i64 0
  %11 = call i32 (i8*, ...) @__isoc99_scanf(i8* getelementptr inbounds ([5 x i8], [5 x i8]* @.str, i64 0, i64 0), i8* %9, i8* %10)
  %12 = getelementptr inbounds [51 x i8], [51 x i8]* %1, i64 0, i64 0
  %13 = call i64 @strlen(i8* %12) #3
  %14 = trunc i64 %13 to i32
  store i32 %14, i32* %3, align 4
  %15 = getelementptr inbounds [51 x i8], [51 x i8]* %2, i64 0, i64 0
  %16 = call i64 @strlen(i8* %15) #3
  %17 = trunc i64 %16 to i32
  store i32 %17, i32* %4, align 4
  store i32 0, i32* %5, align 4
  br label %18

18:                                               ; preds = %70, %0
  %19 = load i32, i32* %5, align 4
  %20 = load i32, i32* %4, align 4
  %21 = sub nsw i32 %20, 1
  %22 = icmp sle i32 %19, %21
  br i1 %22, label %23, label %73

23:                                               ; preds = %18
  %24 = getelementptr inbounds [51 x i8], [51 x i8]* %1, i64 0, i64 0
  %25 = load i8, i8* %24, align 16
  %26 = sext i8 %25 to i32
  %27 = load i32, i32* %5, align 4
  %28 = sext i32 %27 to i64
  %29 = getelementptr inbounds [51 x i8], [51 x i8]* %2, i64 0, i64 %28
  %30 = load i8, i8* %29, align 1
  %31 = sext i8 %30 to i32
  %32 = icmp eq i32 %26, %31
  br i1 %32, label %33, label %69

33:                                               ; preds = %23
  store i32 0, i32* %7, align 4
  %34 = load i32, i32* %5, align 4
  store i32 %34, i32* %6, align 4
  br label %35

35:                                               ; preds = %59, %33
  %36 = load i32, i32* %7, align 4
  %37 = sext i32 %36 to i64
  %38 = getelementptr inbounds [51 x i8], [51 x i8]* %1, i64 0, i64 %37
  %39 = load i8, i8* %38, align 1
  %40 = sext i8 %39 to i32
  %41 = load i32, i32* %6, align 4
  %42 = sext i32 %41 to i64
  %43 = getelementptr inbounds [51 x i8], [51 x i8]* %2, i64 0, i64 %42
  %44 = load i8, i8* %43, align 1
  %45 = sext i8 %44 to i32
  %46 = icmp eq i32 %40, %45
  br i1 %46, label %47, label %64

47:                                               ; preds = %35
  %48 = load i32, i32* %7, align 4
  %49 = load i32, i32* %3, align 4
  %50 = sub nsw i32 %49, 1
  %51 = icmp eq i32 %48, %50
  br i1 %51, label %52, label %58

52:                                               ; preds = %47
  store i32 1, i32* %8, align 4
  %53 = load i32, i32* %6, align 4
  %54 = add nsw i32 %53, 1
  %55 = load i32, i32* %3, align 4
  %56 = sub nsw i32 %54, %55
  %57 = call i32 (i8*, ...) @printf(i8* getelementptr inbounds ([4 x i8], [4 x i8]* @.str.1, i64 0, i64 0), i32 %56)
  br label %64

58:                                               ; preds = %47
  br label %59

59:                                               ; preds = %58
  %60 = load i32, i32* %7, align 4
  %61 = add nsw i32 %60, 1
  store i32 %61, i32* %7, align 4
  %62 = load i32, i32* %6, align 4
  %63 = add nsw i32 %62, 1
  store i32 %63, i32* %6, align 4
  br label %35

64:                                               ; preds = %52, %35
  %65 = load i32, i32* %8, align 4
  %66 = icmp eq i32 %65, 1
  br i1 %66, label %67, label %68

67:                                               ; preds = %64
  br label %73

68:                                               ; preds = %64
  br label %69

69:                                               ; preds = %68, %23
  br label %70

70:                                               ; preds = %69
  %71 = load i32, i32* %5, align 4
  %72 = add nsw i32 %71, 1
  store i32 %72, i32* %5, align 4
  br label %18

73:                                               ; preds = %67, %18
  ret void
}

declare dso_local i32 @__isoc99_scanf(i8*, ...) #1

; Function Attrs: nounwind readonly
declare dso_local i64 @strlen(i8*) #2

declare dso_local i32 @printf(i8*, ...) #1


!llvm.module.flags = !{!0}
!llvm.ident = !{!1}

!0 = !{i32 1, !"wchar_size", i32 4}
!1 = !{!"clang version 10.0.0-4ubuntu1 "}
